target datalayout = "e-m:e-p270:32:32-p271:32:32-p272:64:64-i64:64-i128:128-f80:128-n8:16:32:64-S128"
target triple = "x86_64-pc-linux-gnu"

%struct.formnode = type { i16, i16, i16, i32, i32, i32, i32, i16, i16, i16, i32, ptr, ptr, ptr, ptr, ptr, ptr, ptr, ptr, ptr, ptr, ptr }
%struct.fieldnode = type { i16, i16, i16, i16, i16, i32, i32, i32, i32, i16, i16, i16, i16, i32, i32, i32, i32, ptr, ptr, ptr, ptr, ptr, ptr, ptr, ptr }

; Function Attrs: nounwind uwtable
define internal void @Adjust_Cursor_Position(ptr noundef %0, ptr noundef %1) #0 {
  %3 = alloca ptr, align 8
  %4 = alloca ptr, align 8
  %5 = alloca ptr, align 8
  %6 = alloca i32, align 4
  store ptr %0, ptr %3, align 8, !tbaa !4
  store ptr %1, ptr %4, align 8, !tbaa !55
  call void @llvm.lifetime.start.p0(i64 8, ptr %5) #9
  call void @llvm.lifetime.start.p0(i64 4, ptr %6) #9
  %7 = load ptr, ptr %3, align 8, !tbaa !4
  %8 = getelementptr inbounds nuw %struct.formnode, ptr %7, i32 0, i32 15
  %9 = load ptr, ptr %8, align 8, !tbaa !16
  store ptr %9, ptr %5, align 8, !tbaa !17
  %10 = load ptr, ptr %4, align 8, !tbaa !55
  %11 = load ptr, ptr %5, align 8, !tbaa !17
  %12 = getelementptr inbounds nuw %struct.fieldnode, ptr %11, i32 0, i32 23
  %13 = load ptr, ptr %12, align 8, !tbaa !54
  %14 = ptrtoint ptr %10 to i64
  %15 = ptrtoint ptr %13 to i64
  %16 = sub i64 %14, %15
  %17 = trunc i64 %16 to i32
  store i32 %17, ptr %6, align 4, !tbaa !35
  %18 = load i32, ptr %6, align 4, !tbaa !35
  %19 = load ptr, ptr %5, align 8, !tbaa !17
  %20 = getelementptr inbounds nuw %struct.fieldnode, ptr %19, i32 0, i32 6
  %21 = load i32, ptr %20, align 8, !tbaa !29
  %22 = sdiv i32 %18, %21
  %23 = load ptr, ptr %3, align 8, !tbaa !4
  %24 = getelementptr inbounds nuw %struct.formnode, ptr %23, i32 0, i32 3
  store i32 %22, ptr %24, align 8, !tbaa !21
  %25 = load i32, ptr %6, align 4, !tbaa !35
  %26 = load ptr, ptr %5, align 8, !tbaa !17
  %27 = getelementptr inbounds nuw %struct.fieldnode, ptr %26, i32 0, i32 2
  %28 = load i16, ptr %27, align 4, !tbaa !30
  %29 = sext i16 %28 to i32
  %30 = load ptr, ptr %3, align 8, !tbaa !4
  %31 = getelementptr inbounds nuw %struct.formnode, ptr %30, i32 0, i32 3
  %32 = load i32, ptr %31, align 8, !tbaa !21
  %33 = mul nsw i32 %29, %32
  %34 = sub nsw i32 %25, %33
  %35 = load ptr, ptr %3, align 8, !tbaa !4
  %36 = getelementptr inbounds nuw %struct.formnode, ptr %35, i32 0, i32 4
  store i32 %34, ptr %36, align 4, !tbaa !22
  %37 = load ptr, ptr %5, align 8, !tbaa !17
  %38 = getelementptr inbounds nuw %struct.fieldnode, ptr %37, i32 0, i32 5
  %39 = load i32, ptr %38, align 4, !tbaa !27
  %40 = load ptr, ptr %3, align 8, !tbaa !4
  %41 = getelementptr inbounds nuw %struct.formnode, ptr %40, i32 0, i32 3
  %42 = load i32, ptr %41, align 8, !tbaa !21
  %43 = icmp slt i32 %39, %42
  br i1 %43, label %44, label %47

44:                                               ; preds = %2
  %45 = load ptr, ptr %3, align 8, !tbaa !4
  %46 = getelementptr inbounds nuw %struct.formnode, ptr %45, i32 0, i32 3
  store i32 0, ptr %46, align 8, !tbaa !21
  br label %47

47:                                               ; preds = %44, %2
  call void @llvm.lifetime.end.p0(i64 4, ptr %6) #9
  call void @llvm.lifetime.end.p0(i64 8, ptr %5) #9
  ret void
}

; Function Attrs: nounwind uwtable
define internal ptr @After_End_Of_Data(ptr noundef %0, i32 noundef %1) #0 {
  %3 = alloca ptr, align 8
  %4 = alloca i32, align 4
  %5 = alloca ptr, align 8
  store ptr %0, ptr %3, align 8, !tbaa !55
  store i32 %1, ptr %4, align 4, !tbaa !35
  call void @llvm.lifetime.start.p0(i64 8, ptr %5) #9
  %6 = load ptr, ptr %3, align 8, !tbaa !55
  %7 = load i32, ptr %4, align 4, !tbaa !35
  %8 = sext i32 %7 to i64
  %9 = getelementptr inbounds i8, ptr %6, i64 %8
  store ptr %9, ptr %5, align 8, !tbaa !55
  br label %10

10:                                               ; preds = %22, %2
  %11 = load ptr, ptr %5, align 8, !tbaa !55
  %12 = load ptr, ptr %3, align 8, !tbaa !55
  %13 = icmp ugt ptr %11, %12
  br i1 %13, label %14, label %20

14:                                               ; preds = %10
  %15 = load ptr, ptr %5, align 8, !tbaa !55
  %16 = getelementptr inbounds i8, ptr %15, i64 -1
  %17 = load i8, ptr %16, align 1, !tbaa !65
  %18 = sext i8 %17 to i32
  %19 = icmp eq i32 %18, 32
  br label %20

20:                                               ; preds = %14, %10
  %21 = phi i1 [ false, %10 ], [ %19, %14 ]
  br i1 %21, label %22, label %25

22:                                               ; preds = %20
  %23 = load ptr, ptr %5, align 8, !tbaa !55
  %24 = getelementptr inbounds i8, ptr %23, i32 -1
  store ptr %24, ptr %5, align 8, !tbaa !55
  br label %10, !llvm.loop !116

25:                                               ; preds = %20
  %26 = load ptr, ptr %5, align 8, !tbaa !55
  call void @llvm.lifetime.end.p0(i64 8, ptr %5) #9
  ret ptr %26
}

; Function Attrs: nounwind uwtable
define internal i32 @FE_Delete_Previous(ptr noundef %0) #0 {
  %2 = alloca i32, align 4
  %3 = alloca ptr, align 8
  %4 = alloca ptr, align 8
  %5 = alloca i32, align 4
  %6 = alloca ptr, align 8
  %7 = alloca ptr, align 8
  %8 = alloca ptr, align 8
  %9 = alloca ptr, align 8
  store ptr %0, ptr %3, align 8, !tbaa !4
  call void @llvm.lifetime.start.p0(i64 8, ptr %4) #9
  %10 = load ptr, ptr %3, align 8, !tbaa !4
  %11 = getelementptr inbounds nuw %struct.formnode, ptr %10, i32 0, i32 15
  %12 = load ptr, ptr %11, align 8, !tbaa !16
  store ptr %12, ptr %4, align 8, !tbaa !17
  %13 = load ptr, ptr %3, align 8, !tbaa !4
  %14 = getelementptr inbounds nuw %struct.formnode, ptr %13, i32 0, i32 3
  %15 = load i32, ptr %14, align 8, !tbaa !21
  %16 = icmp eq i32 %15, 0
  br i1 %16, label %17, label %23

17:                                               ; preds = %1
  %18 = load ptr, ptr %3, align 8, !tbaa !4
  %19 = getelementptr inbounds nuw %struct.formnode, ptr %18, i32 0, i32 4
  %20 = load i32, ptr %19, align 4, !tbaa !22
  %21 = icmp eq i32 %20, 0
  br i1 %21, label %22, label %23

22:                                               ; preds = %17
  store i32 -12, ptr %2, align 4
  store i32 1, ptr %5, align 4
  br label %166

23:                                               ; preds = %17, %1
  %24 = load ptr, ptr %3, align 8, !tbaa !4
  %25 = getelementptr inbounds nuw %struct.formnode, ptr %24, i32 0, i32 4
  %26 = load i32, ptr %25, align 4, !tbaa !22
  %27 = add nsw i32 %26, -1
  store i32 %27, ptr %25, align 4, !tbaa !22
  %28 = icmp slt i32 %27, 0
  br i1 %28, label %29, label %150

29:                                               ; preds = %23
  call void @llvm.lifetime.start.p0(i64 8, ptr %6) #9
  call void @llvm.lifetime.start.p0(i64 8, ptr %7) #9
  call void @llvm.lifetime.start.p0(i64 8, ptr %8) #9
  call void @llvm.lifetime.start.p0(i64 8, ptr %9) #9
  %30 = load ptr, ptr %3, align 8, !tbaa !4
  %31 = getelementptr inbounds nuw %struct.formnode, ptr %30, i32 0, i32 4
  %32 = load i32, ptr %31, align 4, !tbaa !22
  %33 = add nsw i32 %32, 1
  store i32 %33, ptr %31, align 4, !tbaa !22
  %34 = load ptr, ptr %3, align 8, !tbaa !4
  %35 = getelementptr inbounds nuw %struct.formnode, ptr %34, i32 0, i32 0
  %36 = load i16, ptr %35, align 8, !tbaa !47
  %37 = zext i16 %36 to i32
  %38 = and i32 %37, 4
  %39 = icmp ne i32 %38, 0
  br i1 %39, label %40, label %41

40:                                               ; preds = %29
  store i32 -12, ptr %2, align 4
  store i32 1, ptr %5, align 4
  br label %147

41:                                               ; preds = %29
  %42 = load ptr, ptr %4, align 8, !tbaa !17
  %43 = getelementptr inbounds nuw %struct.fieldnode, ptr %42, i32 0, i32 23
  %44 = load ptr, ptr %43, align 8, !tbaa !54
  %45 = load ptr, ptr %4, align 8, !tbaa !17
  %46 = getelementptr inbounds nuw %struct.fieldnode, ptr %45, i32 0, i32 5
  %47 = load i32, ptr %46, align 4, !tbaa !27
  %48 = load ptr, ptr %4, align 8, !tbaa !17
  %49 = getelementptr inbounds nuw %struct.fieldnode, ptr %48, i32 0, i32 6
  %50 = load i32, ptr %49, align 8, !tbaa !29
  %51 = mul nsw i32 %47, %50
  %52 = add nsw i32 1, %51
  %53 = mul nsw i32 0, %52
  %54 = sext i32 %53 to i64
  %55 = getelementptr inbounds i8, ptr %44, i64 %54
  %56 = load ptr, ptr %3, align 8, !tbaa !4
  %57 = getelementptr inbounds nuw %struct.formnode, ptr %56, i32 0, i32 3
  %58 = load i32, ptr %57, align 8, !tbaa !21
  %59 = sub nsw i32 %58, 1
  %60 = load ptr, ptr %4, align 8, !tbaa !17
  %61 = getelementptr inbounds nuw %struct.fieldnode, ptr %60, i32 0, i32 6
  %62 = load i32, ptr %61, align 8, !tbaa !29
  %63 = mul nsw i32 %59, %62
  %64 = sext i32 %63 to i64
  %65 = getelementptr inbounds i8, ptr %55, i64 %64
  store ptr %65, ptr %7, align 8, !tbaa !55
  %66 = load ptr, ptr %4, align 8, !tbaa !17
  %67 = getelementptr inbounds nuw %struct.fieldnode, ptr %66, i32 0, i32 23
  %68 = load ptr, ptr %67, align 8, !tbaa !54
  %69 = load ptr, ptr %4, align 8, !tbaa !17
  %70 = getelementptr inbounds nuw %struct.fieldnode, ptr %69, i32 0, i32 5
  %71 = load i32, ptr %70, align 4, !tbaa !27
  %72 = load ptr, ptr %4, align 8, !tbaa !17
  %73 = getelementptr inbounds nuw %struct.fieldnode, ptr %72, i32 0, i32 6
  %74 = load i32, ptr %73, align 8, !tbaa !29
  %75 = mul nsw i32 %71, %74
  %76 = add nsw i32 1, %75
  %77 = mul nsw i32 0, %76
  %78 = sext i32 %77 to i64
  %79 = getelementptr inbounds i8, ptr %68, i64 %78
  %80 = load ptr, ptr %3, align 8, !tbaa !4
  %81 = getelementptr inbounds nuw %struct.formnode, ptr %80, i32 0, i32 3
  %82 = load i32, ptr %81, align 8, !tbaa !21
  %83 = load ptr, ptr %4, align 8, !tbaa !17
  %84 = getelementptr inbounds nuw %struct.fieldnode, ptr %83, i32 0, i32 6
  %85 = load i32, ptr %84, align 8, !tbaa !29
  %86 = mul nsw i32 %82, %85
  %87 = sext i32 %86 to i64
  %88 = getelementptr inbounds i8, ptr %79, i64 %87
  store ptr %88, ptr %6, align 8, !tbaa !55
  %89 = load ptr, ptr %3, align 8, !tbaa !4
  call void @Synchronize_Buffer(ptr noundef %89)
  %90 = load ptr, ptr %7, align 8, !tbaa !55
  %91 = load ptr, ptr %4, align 8, !tbaa !17
  %92 = getelementptr inbounds nuw %struct.fieldnode, ptr %91, i32 0, i32 6
  %93 = load i32, ptr %92, align 8, !tbaa !29
  %94 = call ptr @After_End_Of_Data(ptr noundef %90, i32 noundef %93)
  store ptr %94, ptr %8, align 8, !tbaa !55
  %95 = load ptr, ptr %6, align 8, !tbaa !55
  %96 = load ptr, ptr %4, align 8, !tbaa !17
  %97 = getelementptr inbounds nuw %struct.fieldnode, ptr %96, i32 0, i32 6
  %98 = load i32, ptr %97, align 8, !tbaa !29
  %99 = call ptr @After_End_Of_Data(ptr noundef %95, i32 noundef %98)
  store ptr %99, ptr %9, align 8, !tbaa !55
  %100 = load ptr, ptr %9, align 8, !tbaa !55
  %101 = load ptr, ptr %6, align 8, !tbaa !55
  %102 = ptrtoint ptr %100 to i64
  %103 = ptrtoint ptr %101 to i64
  %104 = sub i64 %102, %103
  %105 = trunc i64 %104 to i32
  %106 = load ptr, ptr %4, align 8, !tbaa !17
  %107 = getelementptr inbounds nuw %struct.fieldnode, ptr %106, i32 0, i32 2
  %108 = load i16, ptr %107, align 4, !tbaa !30
  %109 = sext i16 %108 to i32
  %110 = load ptr, ptr %8, align 8, !tbaa !55
  %111 = load ptr, ptr %7, align 8, !tbaa !55
  %112 = ptrtoint ptr %110 to i64
  %113 = ptrtoint ptr %111 to i64
  %114 = sub i64 %112, %113
  %115 = trunc i64 %114 to i32
  %116 = sub nsw i32 %109, %115
  %117 = icmp sgt i32 %105, %116
  br i1 %117, label %118, label %119

118:                                              ; preds = %41
  store i32 -12, ptr %2, align 4
  store i32 1, ptr %5, align 4
  br label %147

119:                                              ; preds = %41
  %120 = load ptr, ptr %3, align 8, !tbaa !4
  %121 = getelementptr inbounds nuw %struct.formnode, ptr %120, i32 0, i32 13
  %122 = load ptr, ptr %121, align 8, !tbaa !9
  %123 = call i32 @winsdelln(ptr noundef %122, i32 noundef -1)
  %124 = load ptr, ptr %3, align 8, !tbaa !4
  %125 = load ptr, ptr %8, align 8, !tbaa !55
  call void @Adjust_Cursor_Position(ptr noundef %124, ptr noundef %125)
  %126 = load ptr, ptr %3, align 8, !tbaa !4
  %127 = getelementptr inbounds nuw %struct.formnode, ptr %126, i32 0, i32 13
  %128 = load ptr, ptr %127, align 8, !tbaa !9
  %129 = load ptr, ptr %3, align 8, !tbaa !4
  %130 = getelementptr inbounds nuw %struct.formnode, ptr %129, i32 0, i32 3
  %131 = load i32, ptr %130, align 8, !tbaa !21
  %132 = load ptr, ptr %3, align 8, !tbaa !4
  %133 = getelementptr inbounds nuw %struct.formnode, ptr %132, i32 0, i32 4
  %134 = load i32, ptr %133, align 4, !tbaa !22
  %135 = call i32 @wmove(ptr noundef %128, i32 noundef %131, i32 noundef %134)
  %136 = load ptr, ptr %3, align 8, !tbaa !4
  %137 = getelementptr inbounds nuw %struct.formnode, ptr %136, i32 0, i32 13
  %138 = load ptr, ptr %137, align 8, !tbaa !9
  %139 = load ptr, ptr %6, align 8, !tbaa !55
  %140 = load ptr, ptr %9, align 8, !tbaa !55
  %141 = load ptr, ptr %6, align 8, !tbaa !55
  %142 = ptrtoint ptr %140 to i64
  %143 = ptrtoint ptr %141 to i64
  %144 = sub i64 %142, %143
  %145 = trunc i64 %144 to i32
  %146 = call i32 @waddnstr(ptr noundef %138, ptr noundef %139, i32 noundef %145)
  store i32 0, ptr %5, align 4
  br label %147

147:                                              ; preds = %119, %118, %40
  call void @llvm.lifetime.end.p0(i64 8, ptr %9) #9
  call void @llvm.lifetime.end.p0(i64 8, ptr %8) #9
  call void @llvm.lifetime.end.p0(i64 8, ptr %7) #9
  call void @llvm.lifetime.end.p0(i64 8, ptr %6) #9
  %148 = load i32, ptr %5, align 4
  switch i32 %148, label %166 [
    i32 0, label %149
  ]

149:                                              ; preds = %147
  br label %165

150:                                              ; preds = %23
  %151 = load ptr, ptr %3, align 8, !tbaa !4
  %152 = getelementptr inbounds nuw %struct.formnode, ptr %151, i32 0, i32 13
  %153 = load ptr, ptr %152, align 8, !tbaa !9
  %154 = load ptr, ptr %3, align 8, !tbaa !4
  %155 = getelementptr inbounds nuw %struct.formnode, ptr %154, i32 0, i32 3
  %156 = load i32, ptr %155, align 8, !tbaa !21
  %157 = load ptr, ptr %3, align 8, !tbaa !4
  %158 = getelementptr inbounds nuw %struct.formnode, ptr %157, i32 0, i32 4
  %159 = load i32, ptr %158, align 4, !tbaa !22
  %160 = call i32 @wmove(ptr noundef %153, i32 noundef %156, i32 noundef %159)
  %161 = load ptr, ptr %3, align 8, !tbaa !4
  %162 = getelementptr inbounds nuw %struct.formnode, ptr %161, i32 0, i32 13
  %163 = load ptr, ptr %162, align 8, !tbaa !9
  %164 = call i32 @wdelch(ptr noundef %163)
  br label %165

165:                                              ; preds = %150, %149
  store i32 0, ptr %2, align 4
  store i32 1, ptr %5, align 4
  br label %166

166:                                              ; preds = %165, %147, %22
  call void @llvm.lifetime.end.p0(i64 8, ptr %4) #9
  %167 = load i32, ptr %2, align 4
  ret i32 %167
}