; Function Attrs: nounwind uwtable
define internal range(i32 -12, 1) i32 @FE_Delete_Previous(ptr noundef captures(none) %0) #0 {
  %2 = getelementptr inbounds nuw i8, ptr %0, i64 72
  %3 = load ptr, ptr %2, align 8, !tbaa !14
  %4 = getelementptr inbounds nuw i8, ptr %0, i64 8
  %5 = load i32, ptr %4, align 8, !tbaa !17
  %6 = icmp eq i32 %5, 0
  %7 = getelementptr inbounds nuw i8, ptr %0, i64 12
  %8 = load i32, ptr %7, align 4, !tbaa !18
  %9 = icmp eq i32 %8, 0
  %or.cond = select i1 %6, i1 %9, i1 false
  br i1 %or.cond, label %87, label %._crit_edge

._crit_edge:                                      ; preds = %1
  %10 = getelementptr inbounds nuw i8, ptr %0, i64 12
  %11 = add nsw i32 %8, -1
  store i32 %11, ptr %10, align 4, !tbaa !18
  %12 = icmp slt i32 %8, 1
  br i1 %12, label %13, label %81

13:                                               ; preds = %._crit_edge
  store i32 %8, ptr %10, align 4, !tbaa !18
  %14 = load i16, ptr %0, align 8, !tbaa !45
  %15 = and i16 %14, 4
  %.not = icmp eq i16 %15, 0
  br i1 %.not, label %16, label %87

16:                                               ; preds = %13
  %17 = getelementptr inbounds nuw i8, ptr %3, i64 104
  %18 = load ptr, ptr %17, align 8, !tbaa !52
  %19 = getelementptr inbounds nuw i8, ptr %3, i64 16
  %20 = load i32, ptr %19, align 8, !tbaa !26
  %21 = add nsw i32 %5, -1
  %22 = mul nsw i32 %20, %21
  %23 = sext i32 %22 to i64
  %24 = getelementptr inbounds i8, ptr %18, i64 %23
  %25 = mul nsw i32 %20, %5
  %26 = sext i32 %25 to i64
  %27 = getelementptr inbounds i8, ptr %18, i64 %26
  tail call fastcc void @Synchronize_Buffer(ptr noundef nonnull %0)
  %28 = load i32, ptr %19, align 8, !tbaa !26
  %29 = sext i32 %28 to i64
  %30 = getelementptr inbounds i8, ptr %24, i64 %29
  br label %31

31:                                               ; preds = %33, %16
  %.0.i = phi ptr [ %30, %16 ], [ %34, %33 ]
  %32 = icmp ugt ptr %.0.i, %24
  br i1 %32, label %33, label %After_End_Of_Data.exit

33:                                               ; preds = %31
  %34 = getelementptr inbounds i8, ptr %.0.i, i64 -1
  %35 = load i8, ptr %34, align 1, !tbaa !54
  %36 = icmp eq i8 %35, 32
  br i1 %36, label %31, label %After_End_Of_Data.exit, !llvm.loop !57

After_End_Of_Data.exit:                           ; preds = %31, %33
  %37 = getelementptr inbounds i8, ptr %27, i64 %29
  br label %38

38:                                               ; preds = %40, %After_End_Of_Data.exit
  %.0.i45 = phi ptr [ %37, %After_End_Of_Data.exit ], [ %41, %40 ]
  %39 = icmp ugt ptr %.0.i45, %27
  br i1 %39, label %40, label %After_End_Of_Data.exit46

40:                                               ; preds = %38
  %41 = getelementptr inbounds i8, ptr %.0.i45, i64 -1
  %42 = load i8, ptr %41, align 1, !tbaa !54
  %43 = icmp eq i8 %42, 32
  br i1 %43, label %38, label %After_End_Of_Data.exit46, !llvm.loop !57

After_End_Of_Data.exit46:                         ; preds = %38, %40
  %44 = ptrtoint ptr %.0.i45 to i64
  %45 = ptrtoint ptr %27 to i64
  %46 = sub i64 %44, %45
  %47 = trunc i64 %46 to i32
  %48 = getelementptr inbounds nuw i8, ptr %3, i64 4
  %49 = load i16, ptr %48, align 4, !tbaa !27
  %50 = sext i16 %49 to i32
  %51 = ptrtoint ptr %.0.i to i64
  %52 = ptrtoint ptr %24 to i64
  %.neg = sub i64 %52, %51
  %.neg44 = trunc i64 %.neg to i32
  %53 = add i32 %50, %.neg44
  %54 = icmp slt i32 %53, %47
  br i1 %54, label %87, label %.critedge

.critedge:                                        ; preds = %After_End_Of_Data.exit46
  %55 = getelementptr inbounds nuw i8, ptr %0, i64 56
  %56 = load ptr, ptr %55, align 8, !tbaa !4
  %57 = tail call i32 @winsdelln(ptr noundef %56, i32 noundef -1) #13
  %58 = load ptr, ptr %2, align 8, !tbaa !14
  %59 = getelementptr inbounds nuw i8, ptr %58, i64 104
  %60 = load ptr, ptr %59, align 8, !tbaa !52
  %61 = ptrtoint ptr %60 to i64
  %62 = sub i64 %51, %61
  %63 = trunc i64 %62 to i32
  %64 = getelementptr inbounds nuw i8, ptr %58, i64 16
  %65 = load i32, ptr %64, align 8, !tbaa !26
  %66 = sdiv i32 %63, %65
  store i32 %66, ptr %4, align 8, !tbaa !17
  %67 = getelementptr inbounds nuw i8, ptr %58, i64 4
  %68 = load i16, ptr %67, align 4, !tbaa !27
  %69 = sext i16 %68 to i32
  %70 = mul nsw i32 %66, %69
  %71 = sub nsw i32 %63, %70
  store i32 %71, ptr %10, align 4, !tbaa !18
  %72 = getelementptr inbounds nuw i8, ptr %58, i64 12
  %73 = load i32, ptr %72, align 4, !tbaa !24
  %74 = icmp slt i32 %73, %66
  br i1 %74, label %75, label %Adjust_Cursor_Position.exit

75:                                               ; preds = %.critedge
  store i32 0, ptr %4, align 8, !tbaa !17
  br label %Adjust_Cursor_Position.exit

Adjust_Cursor_Position.exit:                      ; preds = %.critedge, %75
  %76 = phi i32 [ %66, %.critedge ], [ 0, %75 ]
  %77 = load ptr, ptr %55, align 8, !tbaa !4
  %78 = tail call i32 @wmove(ptr noundef %77, i32 noundef %76, i32 noundef %71) #13
  %79 = load ptr, ptr %55, align 8, !tbaa !4
  %80 = tail call i32 @waddnstr(ptr noundef %79, ptr noundef %27, i32 noundef %47) #13
  br label %87

81:                                               ; preds = %._crit_edge
  %82 = getelementptr inbounds nuw i8, ptr %0, i64 56
  %83 = load ptr, ptr %82, align 8, !tbaa !4
  %84 = tail call i32 @wmove(ptr noundef %83, i32 noundef %5, i32 noundef %11) #13
  %85 = load ptr, ptr %82, align 8, !tbaa !4
  %86 = tail call i32 @wdelch(ptr noundef %85) #13
  br label %87

87:                                               ; preds = %1, %81, %Adjust_Cursor_Position.exit, %13, %After_End_Of_Data.exit46
  %.0 = phi i32 [ -12, %After_End_Of_Data.exit46 ], [ -12, %13 ], [ 0, %Adjust_Cursor_Position.exit ], [ 0, %81 ], [ -12, %1 ]
  ret i32 %.0
}